(dp1
S'layout'
p2
(ilayout
Layout
p3
(dp4
S'capsules'
p5
(lp6
(I1
I1
tp7
a(I18
I1
tp8
a(I10
I5
tp9
a(I11
I5
tp10
a(I1
I11
tp11
a(I18
I11
tp12
asS'numGhosts'
p13
I4
sS'food'
p14
(igame
Grid
p15
(dp16
S'CELLS_PER_INT'
p17
I30
sS'width'
p18
I20
sS'data'
p19
(lp20
(lp21
I00
aI00
aI00
aI00
aI00
aI00
aI00
aI00
aI00
aI00
aI00
aI00
aI00
aa(lp22
I00
aI00
aI01
aI01
aI01
aI01
aI01
aI01
aI01
aI01
aI01
aI00
aI00
aa(lp23
I00
aI01
aI00
aI00
aI00
aI00
aI00
aI01
aI00
aI00
aI00
aI01
aI00
aa(lp24
I00
aI01
aI00
aI01
aI01
aI01
aI01
aI01
aI01
aI01
aI00
aI01
aI00
aa(lp25
I00
aI01
aI01
aI01
aI01
aI01
aI01
aI01
aI00
aI01
aI01
aI01
aI00
aa(lp26
I00
aI00
aI00
aI01
aI01
aI01
aI01
aI01
aI00
aI01
aI00
aI00
aI00
aa(lp27
I00
aI01
aI01
aI01
aI01
aI01
aI01
aI01
aI01
aI01
aI01
aI01
aI00
aa(lp28
I00
aI01
aI00
aI01
aI00
aI00
aI00
aI00
aI00
aI01
aI00
aI01
aI00
aa(lp29
I00
aI01
aI00
aI01
aI00
aI00
aI00
aI00
aI00
aI00
aI00
aI01
aI00
aa(lp30
I00
aI00
aI00
aI01
aI00
aI00
aI00
aI00
aI00
aI01
aI01
aI01
aI00
aa(lp31
I00
aI01
aI00
aI01
aI00
aI00
aI00
aI00
aI00
aI01
aI01
aI01
aI00
aa(lp32
I00
aI01
aI00
aI01
aI00
aI00
aI00
aI00
aI00
aI00
aI00
aI01
aI00
aa(lp33
I00
aI01
aI00
aI01
aI00
aI00
aI00
aI00
aI00
aI01
aI00
aI01
aI00
aa(lp34
I00
aI01
aI01
aI01
aI01
aI01
aI01
aI01
aI01
aI01
aI01
aI01
aI00
aa(lp35
I00
aI00
aI00
aI00
aI00
aI00
aI00
aI00
aI00
aI01
aI00
aI00
aI00
aa(lp36
I00
aI01
aI01
aI01
aI01
aI01
aI01
aI01
aI00
aI01
aI01
aI01
aI00
aa(lp37
I00
aI01
aI00
aI01
aI01
aI01
aI01
aI01
aI01
aI01
aI00
aI01
aI00
aa(lp38
I00
aI01
aI00
aI00
aI00
aI00
aI00
aI01
aI00
aI00
aI00
aI01
aI00
aa(lp39
I00
aI00
aI01
aI01
aI01
aI01
aI01
aI01
aI01
aI01
aI01
aI00
aI00
aa(lp40
I00
aI00
aI00
aI00
aI00
aI00
aI00
aI00
aI00
aI00
aI00
aI00
aI00
aasS'height'
p41
I13
sbsS'agentPositions'
p42
(lp43
(I01
(I9
I1
tp44
tp45
a(I00
(I8
I7
tp46
tp47
a(I00
(I9
I7
tp48
tp49
a(I00
(I10
I7
tp50
tp51
a(I00
(I11
I7
tp52
tp53
asg41
I13
sg18
I20
sS'walls'
p54
(igame
Grid
p55
(dp56
g17
I30
sg18
I20
sg19
(lp57
(lp58
I01
aI01
aI01
aI01
aI01
aI01
aI01
aI01
aI01
aI01
aI01
aI01
aI01
aa(lp59
I01
aI00
aI00
aI00
aI00
aI00
aI00
aI00
aI00
aI00
aI00
aI00
aI01
aa(lp60
I01
aI00
aI01
aI01
aI01
aI01
aI01
aI00
aI01
aI01
aI01
aI00
aI01
aa(lp61
I01
aI00
aI01
aI00
aI00
aI00
aI00
aI00
aI00
aI00
aI01
aI00
aI01
aa(lp62
I01
aI00
aI00
aI00
aI00
aI00
aI00
aI00
aI01
aI00
aI00
aI00
aI01
aa(lp63
I01
aI01
aI01
aI00
aI00
aI00
aI00
aI00
aI01
aI00
aI01
aI01
aI01
aa(lp64
I01
aI00
aI00
aI00
aI00
aI00
aI00
aI00
aI00
aI00
aI00
aI00
aI01
aa(lp65
I01
aI00
aI01
aI00
aI01
aI01
aI01
aI00
aI01
aI00
aI01
aI00
aI01
aa(lp66
I01
aI00
aI01
aI00
aI00
aI00
aI01
aI00
aI01
aI01
aI01
aI00
aI01
aa(lp67
I01
aI00
aI01
aI00
aI01
aI00
aI01
aI00
aI00
aI00
aI00
aI00
aI01
aa(lp68
I01
aI00
aI01
aI00
aI01
aI00
aI01
aI00
aI00
aI00
aI00
aI00
aI01
aa(lp69
I01
aI00
aI01
aI00
aI01
aI00
aI01
aI00
aI01
aI01
aI01
aI00
aI01
aa(lp70
I01
aI00
aI01
aI00
aI01
aI01
aI01
aI01
aI01
aI00
aI01
aI00
aI01
aa(lp71
I01
aI00
aI00
aI00
aI00
aI00
aI00
aI00
aI00
aI00
aI00
aI00
aI01
aa(lp72
I01
aI01
aI01
aI01
aI01
aI01
aI01
aI01
aI01
aI00
aI01
aI01
aI01
aa(lp73
I01
aI00
aI00
aI00
aI00
aI00
aI00
aI00
aI01
aI00
aI00
aI00
aI01
aa(lp74
I01
aI00
aI01
aI00
aI00
aI00
aI00
aI00
aI00
aI00
aI01
aI00
aI01
aa(lp75
I01
aI00
aI01
aI01
aI01
aI01
aI01
aI00
aI01
aI01
aI01
aI00
aI01
aa(lp76
I01
aI00
aI00
aI00
aI00
aI00
aI00
aI00
aI00
aI00
aI00
aI00
aI01
aa(lp77
I01
aI01
aI01
aI01
aI01
aI01
aI01
aI01
aI01
aI01
aI01
aI01
aI01
aasg41
I13
sbsS'totalFood'
p78
I114
sS'layoutText'
p79
(lp80
S'%%%%%%%%%%%%%%%%%%%%'
p81
aS'%o...%........%...o%'
p82
aS'%.%%.%.%%..%%.%.%%.%'
p83
aS'%.%.....%..%.....%.%'
p84
aS'%.%.%%.%%  %%.%%.%.%'
p85
aS'%...... GGGG%.%....%'
p86
aS'%.%....%%%%%%.%..%.%'
p87
aS'%.%....%  oo%.%..%.%'
p88
aS'%.%....% %%%%.%..%.%'
p89
aS'%.%...........%..%.%'
p90
aS'%.%%.%.%%%%%%.%.%%.%'
p91
aS'%o...%...P....%...o%'
p92
aS'%%%%%%%%%%%%%%%%%%%%'
p93
asbsS'actions'
p94
(lp95
(I0
S'East'
p96
tp97
a(I1
g96
tp98
a(I2
g96
tp99
a(I3
S'West'
p100
tp101
a(I4
g100
tp102
a(I0
g96
tp103
a(I1
g96
tp104
a(I2
S'North'
p105
tp106
a(I3
g105
tp107
a(I4
g100
tp108
a(I0
g96
tp109
a(I1
g105
tp110
a(I2
g105
tp111
a(I3
g105
tp112
a(I4
g105
tp113
a(I0
g96
tp114
a(I1
g100
tp115
a(I2
g100
tp116
a(I3
g96
tp117
a(I4
g105
tp118
a(I0
g105
tp119
a(I1
g105
tp120
a(I2
S'South'
p121
tp122
a(I3
g105
tp123
a(I4
g96
tp124
a(I0
g105
tp125
a(I1
g105
tp126
a(I2
g96
tp127
a(I3
g100
tp128
a(I4
g121
tp129
a(I0
g100
tp130
a(I1
g96
tp131
a(I2
g121
tp132
a(I3
g121
tp133
a(I4
g100
tp134
a(I0
g100
tp135
a(I1
g105
tp136
a(I2
g96
tp137
a(I3
g96
tp138
a(I4
g121
tp139
a(I0
g100
tp140
a(I1
g96
tp141
a(I2
g100
tp142
a(I3
g105
tp143
a(I4
g100
tp144
a(I0
g100
tp145
a(I1
g96
tp146
a(I2
g100
tp147
a(I3
g105
tp148
a(I4
g100
tp149
a(I0
g100
tp150
a(I1
g96
tp151
a(I2
g105
tp152
a(I3
g96
tp153
a(I4
g100
tp154
a(I0
g100
tp155
a(I1
g121
tp156
a(I2
g96
tp157
a(I3
g96
tp158
a(I4
g100
tp159
a(I0
g100
tp160
a(I1
g121
tp161
a(I2
g105
tp162
a(I3
g96
tp163
a(I4
g100
tp164
a(I0
g121
tp165
a(I1
g100
tp166
a(I2
g100
tp167
a(I3
g121
tp168
a(I4
g100
tp169
a(I0
g121
tp170
a(I1
g96
tp171
a(I2
g121
tp172
a(I3
g121
tp173
a(I4
g100
tp174
a(I0
g96
tp175
a(I1
g96
tp176
a(I2
g121
tp177
a(I3
g100
tp178
a(I4
g100
tp179
a(I0
g96
tp180
a(I1
g96
tp181
a(I2
g96
tp182
a(I3
g96
tp183
a(I4
g121
tp184
a(I0
g100
tp185
a(I1
g105
tp186
a(I2
g105
tp187
a(I3
g96
tp188
a(I4
g121
tp189
a(I0
g100
tp190
a(I1
g105
tp191
a(I2
g100
tp192
a(I3
g96
tp193
a(I4
g121
tp194
a(I0
g105
tp195
a(I1
g96
tp196
a(I2
g105
tp197
a(I3
g105
tp198
a(I4
g121
tp199
a(I0
g105
tp200
a(I1
g96
tp201
a(I2
g105
tp202
a(I3
g105
tp203
a(I4
g121
tp204
a(I0
g105
tp205
a(I1
g96
tp206
a(I2
g105
tp207
a(I3
g96
tp208
a(I4
g121
tp209
a(I0
g105
tp210
a(I1
g121
tp211
a(I2
g96
tp212
a(I3
g96
tp213
a(I4
g96
tp214
a(I0
g105
tp215
a(I1
g121
tp216
a(I2
g121
tp217
a(I3
g96
tp218
a(I4
g96
tp219
a(I0
g105
tp220
a(I1
g121
tp221
a(I2
g100
tp222
a(I3
g121
tp223
a(I4
g96
tp224
a(I0
g100
tp225
a(I1
g121
tp226
a(I2
g121
tp227
a(I3
g121
tp228
a(I4
g105
tp229
a(I0
g121
tp230
a(I1
g121
tp231
a(I2
g121
tp232
a(I3
g121
tp233
a(I4
g105
tp234
a(I0
g100
tp235
a(I1
g121
tp236
a(I2
g96
tp237
a(I3
g121
tp238
a(I4
g105
tp239
a(I0
g105
tp240
a(I1
g121
tp241
a(I2
g121
tp242
a(I3
g121
tp243
a(I4
g105
tp244
a(I0
g100
tp245
a(I1
g121
tp246
a(I2
g100
tp247
a(I3
g121
tp248
a(I4
g105
tp249
a(I0
g100
tp250
a(I1
g121
tp251
a(I2
g100
tp252
a(I3
g121
tp253
a(I4
g105
tp254
a(I0
g100
tp255
a(I1
g121
tp256
a(I2
g100
tp257
a(I3
g121
tp258
a(I4
g96
tp259
a(I0
g121
tp260
a(I1
g100
tp261
a(I2
g100
tp262
a(I3
g121
tp263
a(I4
g96
tp264
a(I0
g121
tp265
a(I1
g100
tp266
a(I2
g100
tp267
a(I3
g121
tp268
a(I4
g121
tp269
a(I0
g121
tp270
a(I1
g100
tp271
a(I2
g121
tp272
a(I3
g100
tp273
a(I4
g121
tp274
a(I0
g121
tp275
a(I1
g105
tp276
a(I2
g121
tp277
a(I3
g100
tp278
a(I4
g100
tp279
a(I0
g121
tp280
a(I1
g105
tp281
a(I2
g100
tp282
a(I3
g100
tp283
a(I4
g105
tp284
a(I0
g121
tp285
a(I1
g96
tp286
a(I2
g121
tp287
a(I3
g105
tp288
a(I4
g105
tp289
a(I0
g96
tp290
a(I1
g96
tp291
a(I2
g121
tp292
a(I3
g105
tp293
a(I4
g105
tp294
a(I0
g96
tp295
a(I1
g105
tp296
a(I2
g96
tp297
a(I3
g105
tp298
a(I4
g100
tp299
a(I0
g96
tp300
a(I1
g105
tp301
a(I2
g96
tp302
a(I3
g105
tp303
a(I4
g100
tp304
a(I0
g105
tp305
a(I1
g100
tp306
a(I2
g96
tp307
a(I3
g96
tp308
a(I4
g100
tp309
a(I0
g105
tp310
a(I1
g100
tp311
a(I2
g96
tp312
a(I3
g96
tp313
a(I4
g100
tp314
a(I0
g100
tp315
a(I1
g105
tp316
a(I2
g105
tp317
a(I3
g105
tp318
a(I4
g100
tp319
a(I0
g105
tp320
a(I1
g105
tp321
a(I2
g105
tp322
a(I3
g105
tp323
a(I4
g100
tp324
a(I0
g96
tp325
a(I1
g96
tp326
a(I2
g105
tp327
a(I3
g105
tp328
a(I4
g100
tp329
a(I0
g100
tp330
a(I1
g96
tp331
a(I2
g105
tp332
a(I3
g105
tp333
a(I4
g100
tp334
a(I0
g105
tp335
a(I1
g121
tp336
a(I2
g100
tp337
a(I3
g100
tp338
a(I4
g121
tp339
a(I0
g96
tp340
a(I1
g121
tp341
a(I2
g100
tp342
a(I3
g100
tp343
a(I4
g121
tp344
a(I0
g121
tp345
a(I1
g100
tp346
a(I2
g121
tp347
a(I3
g105
tp348
a(I4
g121
tp349
a(I0
g96
tp350
a(I1
g100
tp351
a(I2
g121
tp352
a(I3
g105
tp353
a(I4
g121
tp354
a(I0
g121
tp355
a(I1
g105
tp356
a(I2
g121
tp357
a(I3
g105
tp358
a(I4
g121
tp359
a(I0
g105
tp360
a(I1
g105
tp361
a(I2
g96
tp362
a(I3
g105
tp363
a(I4
g121
tp364
a(I0
g105
tp365
a(I1
g96
tp366
a(I2
g96
tp367
a(I3
g96
tp368
a(I4
g121
tp369
a(I0
g100
tp370
a(I1
g96
tp371
a(I2
g100
tp372
a(I3
g96
tp373
a(I4
g121
tp374
a(I0
g105
tp375
a(I1
g121
tp376
a(I2
g100
tp377
a(I3
g121
tp378
a(I4
g121
tp379
a(I0
g100
tp380
a(I1
g121
tp381
a(I2
g105
tp382
a(I3
g121
tp383
a(I4
g121
tp384
a(I0
g105
tp385
a(I1
g100
tp386
a(I2
g96
tp387
a(I3
g100
tp388
a(I4
g121
tp389
a(I0
g105
tp390
a(I1
g100
tp391
a(I2
g105
tp392
a(I3
g100
tp393
a(I4
g121
tp394
a(I0
g105
tp395
a(I1
g105
tp396
a(I2
g105
tp397
a(I3
g121
tp398
a(I4
g96
tp399
a(I0
g96
tp400
a(I1
g105
tp401
a(I2
g100
tp402
a(I3
g121
tp403
a(I4
g96
tp404
a(I0
g105
tp405
a(I1
g96
tp406
a(I2
g105
tp407
a(I3
g121
tp408
a(I4
g96
tp409
a(I0
g105
tp410
a(I1
g96
tp411
a(I2
g96
tp412
a(I3
g121
tp413
a(I4
g96
tp414
a(I0
g100
tp415
a(I1
g105
tp416
a(I2
g121
tp417
a(I3
g96
tp418
a(I4
g96
tp419
a(I0
g100
tp420
a(I1
g105
tp421
a(I2
g100
tp422
a(I3
g96
tp423
a(I4
g96
tp424
a(I0
g100
tp425
a(I1
g100
tp426
a(I2
g121
tp427
a(I3
g105
tp428
a(I4
g105
tp429
a(I0
g121
tp430
a(I1
g100
tp431
a(I2
g121
tp432
a(I3
g105
tp433
a(I4
g105
tp434
a(I0
g121
tp435
a(I1
g121
tp436
a(I2
g96
tp437
a(I3
g100
tp438
a(I4
g105
tp439
a(I0
g121
tp440
a(I1
g121
tp441
a(I2
g96
tp442
a(I3
g100
tp443
a(I4
g105
tp444
a(I0
g105
tp445
a(I1
g96
tp446
a(I2
g105
tp447
a(I3
g121
tp448
a(I4
g105
tp449
a(I0
g105
tp450
a(I1
g96
tp451
a(I2
g105
tp452
a(I3
g121
tp453
a(I4
g105
tp454
a(I0
g105
tp455
a(I1
g121
tp456
a(I2
g105
tp457
a(I3
g121
tp458
a(I4
g105
tp459
a(I0
g96
tp460
a(I1
g121
tp461
a(I2
g105
tp462
a(I3
g121
tp463
a(I4
g105
tp464
a(I0
g96
tp465
a(I1
g121
tp466
a(I2
g100
tp467
a(I3
g121
tp468
a(I4
g100
tp469
a(I0
g96
tp470
a(I1
g121
tp471
a(I2
g100
tp472
a(I3
g121
tp473
a(I4
g100
tp474
a(I0
g121
tp475
a(I1
g100
tp476
a(I2
g100
tp477
a(I3
g121
tp478
a(I4
g105
tp479
a(I0
g121
tp480
a(I1
g100
tp481
a(I2
g100
tp482
a(I3
g121
tp483
a(I4
g105
tp484
a(I0
g96
tp485
a(I1
g121
tp486
a(I2
g100
tp487
a(I3
g96
tp488
a(I4
g105
tp489
a(I0
g96
tp490
a(I1
g121
tp491
a(I2
g100
tp492
a(I3
g96
tp493
a(I4
g105
tp494
a(I0
g96
tp495
a(I1
g121
tp496
a(I2
g100
tp497
a(I3
g96
tp498
a(I4
g96
tp499
a(I0
g100
tp500
a(I1
g121
tp501
a(I2
g100
tp502
a(I3
g96
tp503
a(I4
g96
tp504
a(I0
g121
tp505
a(I1
g96
tp506
a(I2
g121
tp507
a(I3
g96
tp508
a(I4
g96
tp509
a(I0
g105
tp510
a(I1
g96
tp511
a(I2
g121
tp512
a(I3
g96
tp513
a(I4
g96
tp514
a(I0
g96
tp515
a(I1
g96
tp516
a(I2
g121
tp517
a(I3
g105
tp518
a(I4
g96
tp519
a(I0
g100
tp520
a(I1
g96
tp521
a(I2
g100
tp522
a(I3
g105
tp523
a(I4
g96
tp524
a(I0
g105
tp525
a(I1
g96
tp526
a(I2
g100
tp527
a(I3
g105
tp528
a(I4
g121
tp529
a(I0
g105
tp530
a(I1
g96
tp531
a(I2
g100
tp532
a(I3
g105
tp533
a(I4
g121
tp534
a(I0
g96
tp535
a(I1
g105
tp536
a(I2
g105
tp537
a(I3
g105
tp538
a(I4
g100
tp539
a(I0
g96
tp540
a(I1
g105
tp541
a(I2
g105
tp542
a(I3
g105
tp543
a(I4
g100
tp544
a(I0
g96
tp545
a(I1
g105
tp546
a(I2
g96
tp547
a(I3
g105
tp548
a(I4
g100
tp549
a(I0
g96
tp550
a(I1
g105
tp551
a(I2
g100
tp552
a(I3
g105
tp553
a(I4
g100
tp554
a(I0
g121
tp555
a(I1
g105
tp556
a(I2
g121
tp557
a(I3
g105
tp558
a(I4
g121
tp559
a(I0
g121
tp560
a(I1
g105
tp561
a(I2
g121
tp562
a(I3
g105
tp563
a(I4
g121
tp564
a(I0
g100
tp565
a(I1
g105
tp566
a(I2
g96
tp567
a(I3
g105
tp568
a(I4
g100
tp569
a(I0
g105
tp570
a(I1
g105
tp571
a(I2
g96
tp572
a(I3
g105
tp573
a(I4
g100
tp574
a(I0
g105
tp575
a(I1
g105
tp576
a(I2
g96
tp577
a(I3
g100
tp578
a(I4
g105
tp579
a(I0
g96
tp580
a(I1
g105
tp581
a(I2
g105
tp582
a(I3
g100
tp583
a(I4
g105
tp584
a(I0
g96
tp585
a(I1
g105
tp586
a(I2
g105
tp587
a(I3
g100
tp588
a(I4
g96
tp589
a(I0
g96
tp590
a(I1
g105
tp591
a(I2
g105
tp592
a(I3
g100
tp593
a(I4
g96
tp594
a(I0
g96
tp595
a(I1
g105
tp596
a(I2
g96
tp597
a(I3
g121
tp598
a(I4
g105
tp599
a(I0
g121
tp600
a(I1
g105
tp601
a(I2
g121
tp602
a(I3
g121
tp603
a(I4
g105
tp604
a(I0
g121
tp605
a(I1
g105
tp606
a(I2
g100
tp607
a(I3
g100
tp608
a(I4
g96
tp609
a(I0
g96
tp610
a(I1
g105
tp611
a(I2
g105
tp612
a(I3
g100
tp613
a(I4
g96
tp614
a(I0
g96
tp615
a(I1
g105
tp616
a(I2
g96
tp617
a(I3
g121
tp618
a(I4
g96
tp619
a(I0
g96
tp620
a(I1
g105
tp621
a(I2
g121
tp622
a(I3
g121
tp623
a(I4
g96
tp624
a(I0
g121
tp625
a(I1
g105
tp626
a(I2
g121
tp627
a(I3
g96
tp628
a(I4
g121
tp629
a(I0
S'Stop'
p630
tp631
a(I1
g100
tp632
a(I2
g100
tp633
a(I3
g105
tp634
a(I4
g100
tp635
a(I0
g105
tp636
a(I1
g100
tp637
a(I2
g105
tp638
a(I3
g100
tp639
a(I4
g105
tp640
a(I0
g121
tp641
a(I1
g100
tp642
a(I2
g96
tp643
a(I3
g105
tp644
a(I4
g100
tp645
a(I0
g105
tp646
a(I1
g121
tp647
a(I2
g121
tp648
a(I3
g96
tp649
a(I4
g121
tp650
a(I0
g630
tp651
a(I1
g121
tp652
a(I2
g121
tp653
a(I3
g121
tp654
a(I4
g96
tp655
a(I0
g121
tp656
a(I1
g96
tp657
a(I2
g100
tp658
a(I3
g100
tp659
a(I4
g96
tp660
a(I0
g121
tp661
a(I1
g121
tp662
a(I2
g105
tp663
a(I3
g121
tp664
a(I4
g121
tp665
a(I0
g96
tp666
a(I1
g121
tp667
a(I2
g105
tp668
a(I3
g96
tp669
a(I4
g121
tp670
a(I0
g96
tp671
a(I1
g121
tp672
a(I2
g105
tp673
a(I3
g105
tp674
a(I4
g100
tp675
a(I0
g121
tp676
a(I1
g121
tp677
a(I2
g105
tp678
a(I3
g100
tp679
a(I4
g121
tp680
a(I0
g121
tp681
a(I1
g121
tp682
a(I2
g96
tp683
a(I3
g121
tp684
a(I4
g100
tp685
a(I0
g121
tp686
a(I1
g100
tp687
a(I2
g121
tp688
a(I3
g121
tp689
a(I4
g121
tp690
a(I0
g121
tp691
a(I1
g121
tp692
a(I2
g121
tp693
a(I3
g121
tp694
a(I4
g121
tp695
a(I0
g121
tp696
a(I1
g121
tp697
a(I2
g121
tp698
a(I3
g121
tp699
a(I4
g100
tp700
a(I0
g121
tp701
a(I1
g121
tp702
a(I2
g100
tp703
a(I3
g121
tp704
a(I4
g100
tp705
a(I0
g100
tp706
a(I1
g121
tp707
a(I2
g100
tp708
a(I3
g121
tp709
a(I4
g100
tp710
a(I0
g100
tp711
a(I1
g96
tp712
a(I2
g105
tp713
a(I3
g96
tp714
a(I4
g100
tp715
a(I0
g100
tp716
a(I1
g100
tp717
a(I2
g105
tp718
a(I3
g96
tp719
a(I4
g100
tp720
a(I0
g105
tp721
a(I1
g100
tp722
a(I2
g105
tp723
a(I3
g100
tp724
a(I4
g105
tp725
a(I0
g105
tp726
a(I1
g105
tp727
a(I2
g105
tp728
a(I3
g105
tp729
a(I4
g105
tp730
a(I0
g105
tp731
a(I1
g105
tp732
a(I2
g105
tp733
a(I3
g100
tp734
a(I4
g105
tp735
a(I0
g96
tp736
a(I1
g100
tp737
a(I2
g105
tp738
a(I3
g105
tp739
a(I4
g105
tp740
a(I0
g121
tp741
a(I1
g100
tp742
a(I2
g100
tp743
a(I3
g105
tp744
a(I4
g105
tp745
a(I0
g105
tp746
a(I1
g105
tp747
a(I2
g100
tp748
a(I3
g105
tp749
a(I4
g105
tp750
a(I0
g105
tp751
a(I1
g105
tp752
a(I2
g100
tp753
a(I3
g96
tp754
a(I4
g105
tp755
a(I0
g100
tp756
a(I1
g100
tp757
a(I2
g100
tp758
a(I3
g96
tp759
a(I4
g105
tp760
a(I0
g105
tp761
a(I1
g100
tp762
a(I2
g100
tp763
a(I3
g96
tp764
a(I4
g105
tp765
a(I0
g96
tp766
a(I1
g100
tp767
a(I2
g100
tp768
a(I3
g96
tp769
a(I4
g105
tp770
a(I0
g100
tp771
a(I1
g121
tp772
a(I2
g121
tp773
a(I3
g121
tp774
a(I4
g105
tp775
a(I0
g105
tp776
a(I1
g121
tp777
a(I2
g121
tp778
a(I3
g121
tp779
a(I4
g105
tp780
a(I0
g96
tp781
a(I1
g121
tp782
a(I2
g121
tp783
a(I3
g100
tp784
a(I4
g96
tp785
a(I0
g96
tp786
a(I1
g121
tp787
a(I2
g121
tp788
a(I3
g96
tp789
a(I4
g96
tp790
a(I0
g96
tp791
a(I1
g96
tp792
a(I2
g96
tp793
a(I3
g105
tp794
a(I4
g96
tp795
a(I0
g105
tp796
a(I1
g96
tp797
a(I2
g96
tp798
a(I3
g105
tp799
a(I4
g96
tp800
a(I0
g105
tp801
a(I1
g96
tp802
a(I2
g100
tp803
a(I3
g100
tp804
a(I4
g96
tp805
a(I0
g105
tp806
a(I1
g96
tp807
a(I2
g100
tp808
a(I3
g100
tp809
a(I4
g96
tp810
a(I0
g105
tp811
a(I1
g121
tp812
a(I2
g100
tp813
a(I3
g100
tp814
a(I4
g121
tp815
a(I0
g100
tp816
a(I1
g121
tp817
a(I2
g100
tp818
a(I3
g100
tp819
a(I4
g121
tp820
a(I0
g100
tp821
a(I1
g121
tp822
a(I2
g100
tp823
a(I3
g100
tp824
a(I4
g96
tp825
a(I0
g100
tp826
a(I1
g121
tp827
a(I2
g100
tp828
a(I3
g100
tp829
a(I4
g96
tp830
a(I0
g121
tp831
a(I1
g100
tp832
a(I2
g100
tp833
a(I3
g100
tp834
a(I4
g96
tp835
a(I0
g121
tp836
a(I1
g100
tp837
a(I2
g100
tp838
a(I3
g100
tp839
a(I4
g96
tp840
a(I0
g100
tp841
a(I1
g105
tp842
a(I2
g121
tp843
a(I3
g100
tp844
a(I4
g105
tp845
a(I0
g100
tp846
a(I1
g105
tp847
a(I2
g121
tp848
a(I3
g100
tp849
a(I4
g105
tp850
a(I0
g100
tp851
a(I1
g105
tp852
a(I2
g121
tp853
a(I3
g100
tp854
a(I4
g100
tp855
a(I0
g96
tp856
a(I1
g105
tp857
a(I2
g121
tp858
a(I3
g100
tp859
a(I4
g100
tp860
a(I0
g121
tp861
a(I1
g100
tp862
a(I2
g96
tp863
a(I3
g121
tp864
a(I4
g121
tp865
a(I0
g121
tp866
a(I1
g100
tp867
a(I2
g96
tp868
a(I3
g121
tp869
a(I4
g121
tp870
a(I0
g121
tp871
a(I1
g105
tp872
a(I2
g96
tp873
a(I3
g121
tp874
a(I4
g96
tp875
a(I0
g121
tp876
a(I1
g105
tp877
a(I2
g96
tp878
a(I3
g121
tp879
a(I4
g96
tp880
a(I0
g121
tp881
as.